; Function Attrs: nounwind uwtable
define internal i32 @lj_cf_io_tmpfile(ptr noundef %0) #0 {
  %2 = tail call ptr @lua_newuserdata(ptr noundef %0, i64 noundef 16) #10
  %3 = getelementptr inbounds nuw i8, ptr %0, i64 40
  %4 = load ptr, ptr %3, align 8, !tbaa !4
  %5 = getelementptr inbounds i8, ptr %4, i64 -8
  %6 = load i64, ptr %5, align 8, !tbaa !14
  %7 = and i64 %6, 140737488355327
  %8 = inttoptr i64 %7 to ptr
  %9 = getelementptr inbounds nuw i8, ptr %8, i64 10
  store i8 1, ptr %9, align 2, !tbaa !17
  %10 = getelementptr inbounds nuw i8, ptr %0, i64 32
  %11 = load ptr, ptr %10, align 8, !tbaa !25
  %12 = getelementptr inbounds i8, ptr %11, i64 -16
  %13 = load i64, ptr %12, align 8, !tbaa !14
  %14 = and i64 %13, 140737488355327
  %15 = inttoptr i64 %14 to ptr
  %16 = getelementptr inbounds nuw i8, ptr %15, i64 16
  %17 = load i64, ptr %16, align 8, !tbaa !14
  %18 = getelementptr inbounds nuw i8, ptr %8, i64 32
  store i64 %17, ptr %18, align 8, !tbaa !19
  store ptr null, ptr %2, align 8, !tbaa !20
  %19 = getelementptr inbounds nuw i8, ptr %2, i64 8
  store i32 0, ptr %19, align 8, !tbaa !22
  %20 = tail call noalias ptr @tmpfile64()
  store ptr %20, ptr %2, align 8, !tbaa !20
  %.not = icmp eq ptr %20, null
  br i1 %.not, label %21, label %23

21:                                               ; preds = %1
  %22 = tail call i32 @luaL_fileresult(ptr noundef nonnull %0, i32 noundef 0, ptr noundef null) #10
  br label %23

23:                                               ; preds = %1, %21
  %24 = phi i32 [ %22, %21 ], [ 1, %1 ]
  ret i32 %24
}